; Function Attrs: mustprogress nofree norecurse nosync nounwind willreturn memory(read, inaccessiblemem: none) uwtable
define dso_local i64 @data_get_list_length(ptr noundef readonly captures(address_is_null) %0) local_unnamed_addr #7 {
  %.not = icmp eq ptr %0, null
  br i1 %.not, label %7, label %2

2:                                                ; preds = %1
  %3 = getelementptr inbounds nuw i8, ptr %0, i64 8
  %4 = load ptr, ptr %3, align 8
  %5 = getelementptr inbounds nuw i8, ptr %4, i64 8
  %6 = load i64, ptr %5, align 8
  br label %7

7:                                                ; preds = %1, %2
  %.0 = phi i64 [ %6, %2 ], [ 0, %1 ]
  ret i64 %.0
}